#include <math.h>
#include <stdio.h>
#include <stdlib.h>
#include <string.h>

void main()
{
	int a[100],i,j,m,n,t;
	int *p;
	p=a;
	scanf("%d%d",&n,&m);
	for(i=0;i<n;i++)
		scanf("%d",p+i);
	for(i=n-m;i<n;i++)
	{
		t=*(p+i);
		for(j=i-1;j>i-1-n+m;j--)
			*(p+j+1)=*(p+j);
		*(p+i-n+m)=t;
	}
	for(i=0;i<n-1;i++)
		printf("%d ",*(p+i));
	printf("%d",*(p+n-1));
}

