; ModuleID = 'source-C-CXX/51/1162.c'
source_filename = "source-C-CXX/51/1162.c"
target datalayout = "e-m:e-p270:32:32-p271:32:32-p272:64:64-i64:64-f80:128-n8:16:32:64-S128"
target triple = "x86_64-pc-linux-gnu"

@.str = private unnamed_addr constant [5 x i8] c"%d%d\00", align 1
@.str.1 = private unnamed_addr constant [3 x i8] c"%d\00", align 1
@.str.2 = private unnamed_addr constant [4 x i8] c"%d \00", align 1

; Function Attrs: nofree nounwind sspstrong uwtable
define dso_local void @main() local_unnamed_addr #0 {
  %1 = alloca [100 x i32], align 16
  %2 = alloca i32, align 4
  %3 = alloca i32, align 4
  %4 = bitcast [100 x i32]* %1 to i8*
  call void @llvm.lifetime.start.p0i8(i64 400, i8* nonnull %4) #3
  %5 = bitcast i32* %2 to i8*
  call void @llvm.lifetime.start.p0i8(i64 4, i8* nonnull %5) #3
  %6 = bitcast i32* %3 to i8*
  call void @llvm.lifetime.start.p0i8(i64 4, i8* nonnull %6) #3
  %7 = call i32 (i8*, ...) @__isoc99_scanf(i8* getelementptr inbounds ([5 x i8], [5 x i8]* @.str, i64 0, i64 0), i32* nonnull %3, i32* nonnull %2)
  %8 = load i32, i32* %3, align 4, !tbaa !5
  %9 = icmp sgt i32 %8, 0
  br i1 %9, label %10, label %18

10:                                               ; preds = %0, %10
  %11 = phi i64 [ %14, %10 ], [ 0, %0 ]
  %12 = getelementptr inbounds [100 x i32], [100 x i32]* %1, i64 0, i64 %11
  %13 = call i32 (i8*, ...) @__isoc99_scanf(i8* getelementptr inbounds ([3 x i8], [3 x i8]* @.str.1, i64 0, i64 0), i32* nonnull %12)
  %14 = add nuw nsw i64 %11, 1
  %15 = load i32, i32* %3, align 4, !tbaa !5
  %16 = sext i32 %15 to i64
  %17 = icmp slt i64 %14, %16
  br i1 %17, label %10, label %18, !llvm.loop !9

18:                                               ; preds = %10, %0
  %19 = phi i32 [ %8, %0 ], [ %15, %10 ]
  %20 = sext i32 %19 to i64
  %21 = load i32, i32* %2, align 4, !tbaa !5
  %22 = sub i32 %21, %19
  %23 = sext i32 %21 to i64
  %24 = sub nsw i64 %23, %20
  %25 = icmp sgt i32 %21, 0
  br i1 %25, label %26, label %31

26:                                               ; preds = %18
  %27 = xor i32 %21, -1
  %28 = add i32 %19, %27
  %29 = sub i32 %19, %21
  %30 = sext i32 %29 to i64
  br label %33

31:                                               ; preds = %52, %18
  %32 = icmp sgt i32 %19, 1
  br i1 %32, label %57, label %69

33:                                               ; preds = %26, %52
  %34 = phi i64 [ %30, %26 ], [ %54, %52 ]
  %35 = phi i32 [ %28, %26 ], [ %56, %52 ]
  %36 = getelementptr inbounds [100 x i32], [100 x i32]* %1, i64 0, i64 %34
  %37 = load i32, i32* %36, align 4, !tbaa !5
  %38 = add nsw i64 %34, -1
  %39 = trunc i64 %38 to i32
  %40 = add i32 %22, %39
  %41 = sext i32 %40 to i64
  %42 = icmp sgt i64 %38, %41
  br i1 %42, label %43, label %52

43:                                               ; preds = %33
  %44 = sext i32 %35 to i64
  br label %45

45:                                               ; preds = %43, %45
  %46 = phi i64 [ %44, %43 ], [ %50, %45 ]
  %47 = getelementptr inbounds [100 x i32], [100 x i32]* %1, i64 0, i64 %46
  %48 = load i32, i32* %47, align 4, !tbaa !5
  %49 = getelementptr inbounds i32, i32* %47, i64 1
  store i32 %48, i32* %49, align 4, !tbaa !5
  %50 = add nsw i64 %46, -1
  %51 = icmp sgt i64 %50, %41
  br i1 %51, label %45, label %52, !llvm.loop !11

52:                                               ; preds = %45, %33
  %53 = getelementptr inbounds i32, i32* %36, i64 %24
  store i32 %37, i32* %53, align 4, !tbaa !5
  %54 = add nsw i64 %34, 1
  %55 = icmp slt i64 %54, %20
  %56 = add i32 %35, 1
  br i1 %55, label %33, label %31, !llvm.loop !12

57:                                               ; preds = %31, %57
  %58 = phi i64 [ %62, %57 ], [ 0, %31 ]
  %59 = getelementptr inbounds [100 x i32], [100 x i32]* %1, i64 0, i64 %58
  %60 = load i32, i32* %59, align 4, !tbaa !5
  %61 = call i32 (i8*, ...) @printf(i8* nonnull dereferenceable(1) getelementptr inbounds ([4 x i8], [4 x i8]* @.str.2, i64 0, i64 0), i32 %60)
  %62 = add nuw nsw i64 %58, 1
  %63 = load i32, i32* %3, align 4, !tbaa !5
  %64 = add nsw i32 %63, -1
  %65 = sext i32 %64 to i64
  %66 = icmp slt i64 %62, %65
  br i1 %66, label %57, label %67, !llvm.loop !13

67:                                               ; preds = %57
  %68 = sext i32 %63 to i64
  br label %69

69:                                               ; preds = %67, %31
  %70 = phi i64 [ %68, %67 ], [ %20, %31 ]
  %71 = getelementptr inbounds [100 x i32], [100 x i32]* %1, i64 0, i64 %70
  %72 = getelementptr inbounds i32, i32* %71, i64 -1
  %73 = load i32, i32* %72, align 4, !tbaa !5
  %74 = call i32 (i8*, ...) @printf(i8* nonnull dereferenceable(1) getelementptr inbounds ([3 x i8], [3 x i8]* @.str.1, i64 0, i64 0), i32 %73)
  call void @llvm.lifetime.end.p0i8(i64 4, i8* nonnull %6) #3
  call void @llvm.lifetime.end.p0i8(i64 4, i8* nonnull %5) #3
  call void @llvm.lifetime.end.p0i8(i64 400, i8* nonnull %4) #3
  ret void
}

; Function Attrs: argmemonly mustprogress nofree nosync nounwind willreturn
declare void @llvm.lifetime.start.p0i8(i64 immarg, i8* nocapture) #1

; Function Attrs: nofree nounwind
declare noundef i32 @__isoc99_scanf(i8* nocapture noundef readonly, ...) local_unnamed_addr #2

; Function Attrs: nofree nounwind
declare noundef i32 @printf(i8* nocapture noundef readonly, ...) local_unnamed_addr #2

; Function Attrs: argmemonly mustprogress nofree nosync nounwind willreturn
declare void @llvm.lifetime.end.p0i8(i64 immarg, i8* nocapture) #1


!llvm.module.flags = !{!0, !1, !2, !3}
!llvm.ident = !{!4}

!0 = !{i32 1, !"wchar_size", i32 4}
!1 = !{i32 7, !"PIC Level", i32 2}
!2 = !{i32 7, !"PIE Level", i32 2}
!3 = !{i32 7, !"uwtable", i32 1}
!4 = !{!"clang version 13.0.0"}
!5 = !{!6, !6, i64 0}
!6 = !{!"int", !7, i64 0}
!7 = !{!"omnipotent char", !8, i64 0}
!8 = !{!"Simple C/C++ TBAA"}
!9 = distinct !{!9, !10}
!10 = !{!"llvm.loop.mustprogress"}
!11 = distinct !{!11, !10}
!12 = distinct !{!12, !10}
!13 = distinct !{!13, !10}
